; Function Attrs: mustprogress uwtable
define void @_ZNK7rocksdb31UserKeyTablePropertiesCollector21GetReadablePropertiesB5cxx11Ev(ptr noalias sret(%"class.std::map") align 8 %agg.result, ptr nocapture noundef nonnull readonly align 8 dereferenceable(16) %this) unnamed_addr #0 align 2 {
entry:
  %collector_ = getelementptr inbounds i8, ptr %this, i64 8
  %0 = load ptr, ptr %collector_, align 8
  %vtable = load ptr, ptr %0, align 8
  %vfn = getelementptr inbounds i8, ptr %vtable, i64 48
  %1 = load ptr, ptr %vfn, align 8
  tail call void %1(ptr sret(%"class.std::map") align 8 %agg.result, ptr noundef nonnull align 8 dereferenceable(8) %0)
  ret void
}